; Function Attrs: mustprogress nounwind uwtable
define hidden void @_ZN13NonJavaThread8post_runEv(ptr noundef nonnull align 8 dereferenceable(896) %0) unnamed_addr #0 align 2 {
  tail call void @_ZN3Jfr14on_thread_exitEP6Thread(ptr noundef nonnull %0) #11
  tail call void @_ZN13NonJavaThread20remove_from_the_listEv(ptr noundef nonnull align 8 dereferenceable(896) %0)
  tail call void @_ZN6Thread32unregister_thread_stack_with_NMTEv(ptr noundef nonnull align 8 dereferenceable(888) %0) #11
  tail call void @_ZN6Thread20clear_thread_currentEv() #11
  %2 = getelementptr inbounds i8, ptr %0, i64 792
  %3 = load ptr, ptr %2, align 8
  store volatile i32 8, ptr %3, align 8
  ret void
}